; Function Attrs: mustprogress uwtable
define dso_local void @_ZN14btCapsuleShapeC2Eff(ptr noundef nonnull align 8 dereferenceable(76) %0, float noundef %1, float noundef %2) unnamed_addr #0 align 2 personality ptr @__gxx_personality_v0 {
  tail call void @_ZN21btConvexInternalShapeC2Ev(ptr noundef nonnull align 8 dereferenceable(72) %0)
  store ptr getelementptr inbounds nuw inrange(-16, 184) (i8, ptr @_ZTV14btCapsuleShape, i64 16), ptr %0, align 8, !tbaa !4
  %4 = getelementptr inbounds nuw i8, ptr %0, i64 64
  store float %1, ptr %4, align 8, !tbaa !7
  %5 = getelementptr inbounds nuw i8, ptr %0, i64 8
  store i32 10, ptr %5, align 8, !tbaa !16
  %6 = getelementptr inbounds nuw i8, ptr %0, i64 72
  store i32 1, ptr %6, align 8, !tbaa !17
  %7 = getelementptr inbounds nuw i8, ptr %0, i64 48
  %8 = fmul float %2, 5.000000e-01
  store float %1, ptr %7, align 8, !tbaa !19
  %9 = getelementptr inbounds nuw i8, ptr %0, i64 52
  store float %8, ptr %9, align 4, !tbaa !19
  %10 = getelementptr inbounds nuw i8, ptr %0, i64 56
  store float %1, ptr %10, align 8, !tbaa !19
  %11 = getelementptr inbounds nuw i8, ptr %0, i64 60
  store float 0.000000e+00, ptr %11, align 4, !tbaa !19
  ret void
}